

HI-TECH Software PIC LITE Macro Assembler V1.00 build 12136 
                                                                                               Tue Jun 26 11:34:13 2012

HI-TECH Software Omniscient Code Generator (Lite mode) build 12136
     1  0000                     opt subtitle "HI-TECH Software Omniscient Code Generator (Lite mode) build 12136"
     2                           
     3                           opt pagewidth 120
     4                           
     5                           	opt lm
     6                           
     7                           	processor	16F876A
     8                           clrc	macro
     9                           	bcf	3,0
    10  0000                     	endm
    11                           clrz	macro
    12                           	bcf	3,2
    13  0000                     	endm
    14                           setc	macro
    15                           	bsf	3,0
    16  0000                     	endm
    17                           setz	macro
    18                           	bsf	3,2
    19  0000                     	endm
    20                           skipc	macro
    21                           	btfss	3,0
    22  0000                     	endm
    23                           skipz	macro
    24                           	btfss	3,2
    25  0000                     	endm
    26                           skipnc	macro
    27                           	btfsc	3,0
    28  0000                     	endm
    29                           skipnz	macro
    30                           	btfsc	3,2
    31  0000                     	endm
    32  0000                     indf	equ	0
    33  0000                     indf0	equ	0
    34  0002                     pc	equ	2
    35  0002                     pcl	equ	2
    36  0003                     status	equ	3
    37  0004                     fsr	equ	4
    38  0004                     fsr0	equ	4
    39  0001                     c	equ	1
    40  0000                     z	equ	0
    41  000A                     pclath	equ	10
    42                           # 17 "PR10-MD10C.c"
    43                           psect config,class=CONFIG,delta=2 ;# 
    44                           # 17 "PR10-MD10C.c"
    45  2007  3F32               dw 0x3F32 ;# 
    46                           	FNCALL	_main,_delay
    47                           	FNROOT	_main
    48                           	global	_temp
    49                           psect	idataCOMMON,class=CODE,space=0,delta=2
    50                           global __pidataCOMMON
    51  0752                     __pidataCOMMON:
    52                           	file	"PR10-MD10C.c"
    53                           	line	34
    54                           
    55                           ;initializer for _temp
    56  0752  3432               	retlw	032h
    57                           	global	_CCP1CON
    58  0017                     _CCP1CON	set	0x17
    59                           	global	_CCPR1L
    60  0015                     _CCPR1L	set	0x15
    61                           	global	_T2CON
    62  0012                     _T2CON	set	0x12
    63                           	global	_RA1
    64  0029                     _RA1	set	0x29
    65                           	global	_RA2
    66  002A                     _RA2	set	0x2A
    67                           	global	_RA3
    68  002B                     _RA3	set	0x2B
    69                           	global	_RA4
    70  002C                     _RA4	set	0x2C
    71                           	global	_RB2
    72  0032                     _RB2	set	0x32
    73                           	global	_ADCON1
    74  009F                     _ADCON1	set	0x9F
    75                           	global	_PR2
    76  0092                     _PR2	set	0x92
    77                           	global	_TRISA
    78  0085                     _TRISA	set	0x85
    79                           	global	_TRISB
    80  0086                     _TRISB	set	0x86
    81                           	global	_TRISC
    82  0087                     _TRISC	set	0x87
    83                           	file	"C:\Users\HATAKE~1\AppData\Local\Temp\s258."
    84                           	line	#
    85                           psect cinit,class=CODE,delta=2
    86                           global start_initialization
    87  0753                     start_initialization:
    88                           
    89                           psect	dataCOMMON,class=COMMON,space=1
    90                           global __pdataCOMMON
    91  0079                     __pdataCOMMON:
    92                           	file	"PR10-MD10C.c"
    93  0079                     _temp:
    94  0079                            ds      1
    95                           
    96                           ; Initialize objects allocated to COMMON
    97                           	global __pidataCOMMON
    98                           psect cinit,class=CODE,delta=2,merge=1
    99  0753  120A  118A  2752   	fcall	__pidataCOMMON+0		;fetch initializer
              120A  118A         
   100  0758  00F9               	movwf	__pdataCOMMON+0&07fh		
   101                           psect cinit,class=CODE,delta=2,merge=1
   102                           global end_of_initialization
   103                           
   104                           ;End of C runtime variable initialization code
   105                           
   106  0759                     end_of_initialization:
   107  0759  0183               clrf status
   108  075A  120A  118A  2F8D   ljmp _main	;jump to C main() function
   109                           psect	cstackCOMMON,class=COMMON,space=1
   110                           global __pcstackCOMMON
   111  0070                     __pcstackCOMMON:
   112                           	global	?_delay
   113  0070                     ?_delay:	; 0 bytes @ 0x0
   114                           	global	?_main
   115  0070                     ?_main:	; 0 bytes @ 0x0
   116                           	global	delay@data
   117  0070                     delay@data:	; 4 bytes @ 0x0
   118  0070                     	ds	4
   119                           	global	??_delay
   120  0074                     ??_delay:	; 0 bytes @ 0x4
   121  0074                     	ds	4
   122                           	global	??_main
   123  0078                     ??_main:	; 0 bytes @ 0x8
   124  0078                     	ds	1
   125                           ;!
   126                           ;!Data Sizes:
   127                           ;!    Strings     0
   128                           ;!    Constant    0
   129                           ;!    Data        1
   130                           ;!    BSS         0
   131                           ;!    Persistent  0
   132                           ;!    Stack       0
   133                           ;!
   134                           ;!Auto Spaces:
   135                           ;!    Space          Size  Autos    Used
   136                           ;!    COMMON           14      9      10
   137                           ;!    BANK0            80      0       0
   138                           ;!    BANK1            80      0       0
   139                           ;!    BANK3            96      0       0
   140                           ;!    BANK2            96      0       0
   141                           
   142                           ;!
   143                           ;!Pointer List with Targets:
   144                           ;!
   145                           ;!    None.
   146                           
   147                           
   148                           ;!
   149                           ;!Critical Paths under _main in COMMON
   150                           ;!
   151                           ;!    _main->_delay
   152                           ;!
   153                           ;!Critical Paths under _main in BANK0
   154                           ;!
   155                           ;!    None.
   156                           ;!
   157                           ;!Critical Paths under _main in BANK1
   158                           ;!
   159                           ;!    None.
   160                           ;!
   161                           ;!Critical Paths under _main in BANK3
   162                           ;!
   163                           ;!    None.
   164                           ;!
   165                           ;!Critical Paths under _main in BANK2
   166                           ;!
   167                           ;!    None.
   168                           
   169 ;;
   170 ;;Main: autosize = 0, tempsize = 1, incstack = 0, save=0
   171 ;;
   172                           
   173                           ;!
   174                           ;!Call Graph Tables:
   175                           ;!
   176                           ;! ---------------------------------------------------------------------------------
   177                           ;! (Depth) Function   	        Calls       Base Space   Used Autos Params    Refs
   178                           ;! ---------------------------------------------------------------------------------
   179                           ;! (0) _main                                                 1     1      0      30
   180                           ;!                                              8 COMMON     1     1      0
   181                           ;!                              _delay
   182                           ;! ---------------------------------------------------------------------------------
   183                           ;! (1) _delay                                                8     4      4      30
   184                           ;!                                              0 COMMON     8     4      4
   185                           ;! ---------------------------------------------------------------------------------
   186                           ;! Estimated maximum stack depth 1
   187                           ;! ---------------------------------------------------------------------------------
   188                           ;!
   189                           ;! Call Graph Graphs:
   190                           ;!
   191                           ;! _main (ROOT)
   192                           ;!   _delay
   193                           ;!
   194                           
   195                           ;! Address spaces:
   196                           
   197                           ;!Name               Size   Autos  Total    Cost      Usage
   198                           ;!BANK3               60      0       0       9        0.0%
   199                           ;!BITBANK3            60      0       0       8        0.0%
   200                           ;!SFR3                 0      0       0       4        0.0%
   201                           ;!BITSFR3              0      0       0       4        0.0%
   202                           ;!BANK2               60      0       0      11        0.0%
   203                           ;!BITBANK2            60      0       0      10        0.0%
   204                           ;!SFR2                 0      0       0       5        0.0%
   205                           ;!BITSFR2              0      0       0       5        0.0%
   206                           ;!BANK1               50      0       0       7        0.0%
   207                           ;!BITBANK1            50      0       0       6        0.0%
   208                           ;!SFR1                 0      0       0       2        0.0%
   209                           ;!BITSFR1              0      0       0       2        0.0%
   210                           ;!BANK0               50      0       0       5        0.0%
   211                           ;!BITBANK0            50      0       0       4        0.0%
   212                           ;!SFR0                 0      0       0       1        0.0%
   213                           ;!BITSFR0              0      0       0       1        0.0%
   214                           ;!COMMON               E      9       A       1       71.4%
   215                           ;!BITCOMMON            E      0       0       0        0.0%
   216                           ;!CODE                 0      0       0       0        0.0%
   217                           ;!DATA                 0      0       B      12        0.0%
   218                           ;!ABS                  0      0       A       3        0.0%
   219                           ;!NULL                 0      0       0       0        0.0%
   220                           ;!STACK                0      0       1       2        0.0%
   221                           ;!EEDATA             100      0       0       0        0.0%
   222                           
   223                           	global	_main
   224                           
   225 ;; *************** function _main *****************
   226 ;; Defined at:
   227 ;;		line 41 in file "PR10-MD10C.c"
   228 ;; Parameters:    Size  Location     Type
   229 ;;		None
   230 ;; Auto vars:     Size  Location     Type
   231 ;;		None
   232 ;; Return value:  Size  Location     Type
   233 ;;		None               void
   234 ;; Registers used:
   235 ;;		wreg, status,2, status,0, pclath, cstack
   236 ;; Tracked objects:
   237 ;;		On entry : 17F/0
   238 ;;		On exit  : 0/0
   239 ;;		Unchanged: 0/0
   240 ;; Data sizes:     COMMON   BANK0   BANK1   BANK3   BANK2
   241 ;;      Params:         0       0       0       0       0
   242 ;;      Locals:         0       0       0       0       0
   243 ;;      Temps:          1       0       0       0       0
   244 ;;      Totals:         1       0       0       0       0
   245 ;;Total ram usage:        1 bytes
   246 ;; Hardware stack levels required when called:    1
   247 ;; This function calls:
   248 ;;		_delay
   249 ;; This function is called by:
   250 ;;		Startup code after reset
   251 ;; This function uses a non-reentrant model
   252 ;;
   253                           psect	maintext,global,class=CODE,delta=2,split=1
   254                           global __pmaintext
   255  078D                     __pmaintext:
   256                           psect	maintext
   257                           	file	"PR10-MD10C.c"
   258                           	line	41
   259                           	global	__size_of_main
   260  0073                     	__size_of_main	equ	__end_of_main-_main
   261                           	
   262  078D                     _main:	
   263                           	opt	stack 7
   264                           ; Regs used in _main: [wreg+status,2+status,0+pclath+cstack]
   265                           	line	43
   266                           	
   267  078D                     l516:	
   268                           ;PR10-MD10C.c: 43: ADCON1 = 0x06;
   269  078D  3006               	movlw	(06h)
   270  078E  1683               	bsf	status, 5	;RP0=1, select bank1
   271  078F  1303               	bcf	status, 6	;RP1=0, select bank1
   272  0790  009F               	movwf	(159)^080h	;volatile
   273                           	line	45
   274                           ;PR10-MD10C.c: 45: TRISA = 0b11111111;
   275  0791  30FF               	movlw	(0FFh)
   276  0792  0085               	movwf	(133)^080h	;volatile
   277                           	line	46
   278                           	
   279  0793                     l518:	
   280                           ;PR10-MD10C.c: 46: TRISB = 0b00000000;
   281  0793  0186               	clrf	(134)^080h	;volatile
   282                           	line	47
   283                           	
   284  0794                     l520:	
   285                           ;PR10-MD10C.c: 47: TRISC = 0b11000000;
   286  0794  30C0               	movlw	(0C0h)
   287  0795  0087               	movwf	(135)^080h	;volatile
   288                           	line	49
   289                           	
   290  0796                     l522:	
   291                           ;PR10-MD10C.c: 49: CCP1CON = 0b00001100;
   292  0796  300C               	movlw	(0Ch)
   293  0797  1283               	bcf	status, 5	;RP0=0, select bank0
   294  0798  1303               	bcf	status, 6	;RP1=0, select bank0
   295  0799  0097               	movwf	(23)	;volatile
   296                           	line	52
   297                           	
   298  079A                     l524:	
   299                           ;PR10-MD10C.c: 52: PR2 = 0xFF;
   300  079A  30FF               	movlw	(0FFh)
   301  079B  1683               	bsf	status, 5	;RP0=1, select bank1
   302  079C  1303               	bcf	status, 6	;RP1=0, select bank1
   303  079D  0092               	movwf	(146)^080h	;volatile
   304                           	line	53
   305                           	
   306  079E                     l526:	
   307                           ;PR10-MD10C.c: 53: T2CON = 0b00000101;
   308  079E  3005               	movlw	(05h)
   309  079F  1283               	bcf	status, 5	;RP0=0, select bank0
   310  07A0  1303               	bcf	status, 6	;RP1=0, select bank0
   311  07A1  0092               	movwf	(18)	;volatile
   312                           	line	56
   313                           	
   314  07A2                     l528:	
   315                           ;PR10-MD10C.c: 56: CCPR1L = 0;
   316  07A2  0195               	clrf	(21)	;volatile
   317                           	line	57
   318                           	
   319  07A3                     l530:	
   320                           ;PR10-MD10C.c: 57: RB2 = 0;
   321  07A3  1106               	bcf	(50/8),(50)&7	;volatile
   322  07A4  2FA5               	goto	l532
   323                           	line	59
   324                           ;PR10-MD10C.c: 59: while(1)
   325                           	
   326  07A5                     l33:	
   327                           	line	61
   328                           	
   329  07A5                     l532:	
   330                           ;PR10-MD10C.c: 60: {
   331                           ;PR10-MD10C.c: 61: if(RA1==0)
   332  07A5  1283               	bcf	status, 5	;RP0=0, select bank0
   333  07A6  1303               	bcf	status, 6	;RP1=0, select bank0
   334  07A7  1885               	btfsc	(41/8),(41)&7	;volatile
   335  07A8  2FAA               	goto	u41
   336  07A9  2FAB               	goto	u40
   337  07AA                     u41:
   338  07AA  2FAE               	goto	l34
   339  07AB                     u40:
   340                           	line	63
   341                           	
   342  07AB                     l534:	
   343                           ;PR10-MD10C.c: 62: {
   344                           ;PR10-MD10C.c: 63: CCPR1L=0;
   345  07AB  0195               	clrf	(21)	;volatile
   346                           	line	64
   347                           	
   348  07AC                     l536:	
   349                           ;PR10-MD10C.c: 64: RB2=0;
   350  07AC  1106               	bcf	(50/8),(50)&7	;volatile
   351                           	line	65
   352                           ;PR10-MD10C.c: 65: }
   353  07AD  2FA5               	goto	l532
   354                           	line	67
   355                           	
   356  07AE                     l34:	
   357                           ;PR10-MD10C.c: 67: else if(RA2==0)
   358  07AE  1905               	btfsc	(42/8),(42)&7	;volatile
   359  07AF  2FB1               	goto	u51
   360  07B0  2FB2               	goto	u50
   361  07B1                     u51:
   362  07B1  2FBE               	goto	l36
   363  07B2                     u50:
   364  07B2  2FB4               	goto	l37
   365                           	line	69
   366                           	
   367  07B3                     l538:	
   368                           ;PR10-MD10C.c: 68: {
   369                           ;PR10-MD10C.c: 69: while(RA2==0)continue;
   370  07B3  2FB4               	goto	l37
   371                           	
   372  07B4                     l38:	
   373                           	
   374  07B4                     l37:	
   375  07B4  1D05               	btfss	(42/8),(42)&7	;volatile
   376  07B5  2FB7               	goto	u61
   377  07B6  2FB8               	goto	u60
   378  07B7                     u61:
   379  07B7  2FB4               	goto	l37
   380  07B8                     u60:
   381  07B8  2FB9               	goto	l540
   382                           	
   383  07B9                     l39:	
   384                           	line	70
   385                           	
   386  07B9                     l540:	
   387                           ;PR10-MD10C.c: 70: CCPR1L=temp;
   388  07B9  0879               	movf	(_temp),w
   389  07BA  0095               	movwf	(21)	;volatile
   390                           	line	71
   391                           ;PR10-MD10C.c: 71: RB2=!RB2;
   392  07BB  3004               	movlw	1<<((50)&7)
   393  07BC  0686               	xorwf	((50)/8),f
   394                           	line	72
   395                           ;PR10-MD10C.c: 72: }
   396  07BD  2FA5               	goto	l532
   397                           	line	74
   398                           	
   399  07BE                     l36:	
   400                           ;PR10-MD10C.c: 74: else if(RA3==0)
   401  07BE  1985               	btfsc	(43/8),(43)&7	;volatile
   402  07BF  2FC1               	goto	u71
   403  07C0  2FC2               	goto	u70
   404  07C1                     u71:
   405  07C1  2FDD               	goto	l41
   406  07C2                     u70:
   407                           	line	76
   408                           	
   409  07C2                     l542:	
   410                           ;PR10-MD10C.c: 75: {
   411                           ;PR10-MD10C.c: 76: if(temp<255)temp+=1;
   412  07C2  0879               	movf	(_temp),w
   413  07C3  3AFF               	xorlw	0FFh
   414  07C4  1903               	skipnz
   415  07C5  2FC7               	goto	u81
   416  07C6  2FC8               	goto	u80
   417  07C7                     u81:
   418  07C7  2FCD               	goto	l546
   419  07C8                     u80:
   420                           	
   421  07C8                     l544:	
   422  07C8  3001               	movlw	(01h)
   423  07C9  00F8               	movwf	(??_main+0)+0
   424  07CA  0878               	movf	(??_main+0)+0,w
   425  07CB  07F9               	addwf	(_temp),f
   426  07CC  2FCD               	goto	l546
   427                           	
   428  07CD                     l42:	
   429                           	line	77
   430                           	
   431  07CD                     l546:	
   432                           ;PR10-MD10C.c: 77: CCPR1L=temp;
   433  07CD  0879               	movf	(_temp),w
   434  07CE  0095               	movwf	(21)	;volatile
   435                           	line	78
   436                           	
   437  07CF                     l548:	
   438                           ;PR10-MD10C.c: 78: delay(5000);
   439  07CF  3000               	movlw	0
   440  07D0  00F3               	movwf	(?_delay+3)
   441  07D1  3000               	movlw	0
   442  07D2  00F2               	movwf	(?_delay+2)
   443  07D3  3013               	movlw	013h
   444  07D4  00F1               	movwf	(?_delay+1)
   445  07D5  3088               	movlw	088h
   446  07D6  00F0               	movwf	(?_delay)
   447                           
   448  07D7  120A  118A  275D   	fcall	_delay
              120A  118A         
   449                           	line	79
   450                           ;PR10-MD10C.c: 79: }
   451  07DC  2FA5               	goto	l532
   452                           	line	81
   453                           	
   454  07DD                     l41:	
   455                           ;PR10-MD10C.c: 81: else if(RA4==0)
   456  07DD  1A05               	btfsc	(44/8),(44)&7	;volatile
   457  07DE  2FE0               	goto	u91
   458  07DF  2FE1               	goto	u90
   459  07E0                     u91:
   460  07E0  2FA5               	goto	l532
   461  07E1                     u90:
   462                           	line	83
   463                           	
   464  07E1                     l550:	
   465                           ;PR10-MD10C.c: 82: {
   466                           ;PR10-MD10C.c: 83: if(temp>0)temp-=1;
   467  07E1  0879               	movf	(_temp),w
   468  07E2  1D03               	skipz
   469  07E3  2FE5               	goto	u100
   470  07E4  2FE8               	goto	l554
   471  07E5                     u100:
   472                           	
   473  07E5                     l552:	
   474  07E5  3001               	movlw	low(01h)
   475  07E6  02F9               	subwf	(_temp),f
   476  07E7  2FE8               	goto	l554
   477                           	
   478  07E8                     l45:	
   479                           	line	84
   480                           	
   481  07E8                     l554:	
   482                           ;PR10-MD10C.c: 84: CCPR1L=temp;
   483  07E8  0879               	movf	(_temp),w
   484  07E9  0095               	movwf	(21)	;volatile
   485                           	line	85
   486                           	
   487  07EA                     l556:	
   488                           ;PR10-MD10C.c: 85: delay(5000);
   489  07EA  3000               	movlw	0
   490  07EB  00F3               	movwf	(?_delay+3)
   491  07EC  3000               	movlw	0
   492  07ED  00F2               	movwf	(?_delay+2)
   493  07EE  3013               	movlw	013h
   494  07EF  00F1               	movwf	(?_delay+1)
   495  07F0  3088               	movlw	088h
   496  07F1  00F0               	movwf	(?_delay)
   497                           
   498  07F2  120A  118A  275D   	fcall	_delay
              120A  118A         
   499  07F7  2FA5               	goto	l532
   500                           	line	86
   501                           	
   502  07F8                     l44:	
   503  07F8  2FA5               	goto	l532
   504                           	line	87
   505                           	
   506  07F9                     l43:	
   507  07F9  2FA5               	goto	l532
   508                           	
   509  07FA                     l40:	
   510  07FA  2FA5               	goto	l532
   511                           	
   512  07FB                     l35:	
   513  07FB  2FA5               	goto	l532
   514                           	
   515  07FC                     l46:	
   516                           	line	59
   517  07FC  2FA5               	goto	l532
   518                           	
   519  07FD                     l47:	
   520                           	line	88
   521                           	
   522  07FD                     l48:	
   523                           	global	start
   524  07FD  120A  118A  2800   	ljmp	start
   525                           	opt stack 0
   526                           GLOBAL	__end_of_main
   527  0800                     	__end_of_main:
   528                           	signat	_main,88
   529                           	global	_delay
   530                           
   531 ;; *************** function _delay *****************
   532 ;; Defined at:
   533 ;;		line 94 in file "PR10-MD10C.c"
   534 ;; Parameters:    Size  Location     Type
   535 ;;  data            4    0[COMMON] unsigned long 
   536 ;; Auto vars:     Size  Location     Type
   537 ;;		None
   538 ;; Return value:  Size  Location     Type
   539 ;;		None               void
   540 ;; Registers used:
   541 ;;		wreg
   542 ;; Tracked objects:
   543 ;;		On entry : 0/0
   544 ;;		On exit  : 0/0
   545 ;;		Unchanged: 0/0
   546 ;; Data sizes:     COMMON   BANK0   BANK1   BANK3   BANK2
   547 ;;      Params:         4       0       0       0       0
   548 ;;      Locals:         0       0       0       0       0
   549 ;;      Temps:          4       0       0       0       0
   550 ;;      Totals:         8       0       0       0       0
   551 ;;Total ram usage:        8 bytes
   552 ;; Hardware stack levels used:    1
   553 ;; This function calls:
   554 ;;		Nothing
   555 ;; This function is called by:
   556 ;;		_main
   557 ;; This function uses a non-reentrant model
   558 ;;
   559                           psect	text19,local,class=CODE,delta=2,merge=1
   560                           global __ptext19
   561  075D                     __ptext19:
   562                           psect	text19
   563                           	file	"PR10-MD10C.c"
   564                           	line	94
   565                           	global	__size_of_delay
   566  0030                     	__size_of_delay	equ	__end_of_delay-_delay
   567                           	
   568  075D                     _delay:	
   569                           	opt	stack 7
   570                           ; Regs used in _delay: [wreg]
   571                           	line	95
   572                           	
   573  075D                     l510:	
   574                           ;PR10-MD10C.c: 95: for( ;data>0;data-=1);
   575  075D  0873               	movf	(delay@data+3),w
   576  075E  0472               	iorwf	(delay@data+2),w
   577  075F  0471               	iorwf	(delay@data+1),w
   578  0760  0470               	iorwf	(delay@data),w
   579  0761  1D03               	skipz
   580  0762  2F64               	goto	u11
   581  0763  2F65               	goto	u10
   582  0764                     u11:
   583  0764  2F67               	goto	l514
   584  0765                     u10:
   585  0765  2F8C               	goto	l53
   586                           	
   587  0766                     l512:	
   588  0766  2F8C               	goto	l53
   589                           	
   590  0767                     l51:	
   591                           	
   592  0767                     l514:	
   593  0767  3001               	movlw	01h
   594  0768  00F4               	movwf	((??_delay+0)+0)
   595  0769  3000               	movlw	0
   596  076A  00F5               	movwf	((??_delay+0)+0+1)
   597  076B  3000               	movlw	0
   598  076C  00F6               	movwf	((??_delay+0)+0+2)
   599  076D  3000               	movlw	0
   600  076E  00F7               	movwf	((??_delay+0)+0+3)
   601  076F  0874               	movf	0+(??_delay+0)+0,w
   602  0770  02F0               	subwf	(delay@data),f
   603  0771  0875               	movf	1+(??_delay+0)+0,w
   604  0772  1C03               	skipc
   605  0773  0F75               	incfsz	1+(??_delay+0)+0,w
   606  0774  2F76               	goto	u25
   607  0775  2F77               	goto	u26
   608  0776                     u25:
   609  0776  02F1               	subwf	(delay@data+1),f
   610  0777                     u26:
   611  0777  0876               	movf	2+(??_delay+0)+0,w
   612  0778  1C03               	skipc
   613  0779  0F76               	incfsz	2+(??_delay+0)+0,w
   614  077A  2F7C               	goto	u27
   615  077B  2F7D               	goto	u28
   616  077C                     u27:
   617  077C  02F2               	subwf	(delay@data+2),f
   618  077D                     u28:
   619  077D  0877               	movf	3+(??_delay+0)+0,w
   620  077E  1C03               	skipc
   621  077F  0F77               	incfsz	3+(??_delay+0)+0,w
   622  0780  2F82               	goto	u29
   623  0781  2F83               	goto	u20
   624  0782                     u29:
   625  0782  02F3               	subwf	(delay@data+3),f
   626  0783                     u20:
   627                           
   628  0783  0873               	movf	(delay@data+3),w
   629  0784  0472               	iorwf	(delay@data+2),w
   630  0785  0471               	iorwf	(delay@data+1),w
   631  0786  0470               	iorwf	(delay@data),w
   632  0787  1D03               	skipz
   633  0788  2F8A               	goto	u31
   634  0789  2F8B               	goto	u30
   635  078A                     u31:
   636  078A  2F67               	goto	l514
   637  078B                     u30:
   638  078B  2F8C               	goto	l53
   639                           	
   640  078C                     l52:	
   641                           	line	96
   642                           	
   643  078C                     l53:	
   644  078C  0008               	return
   645                           	opt stack 0
   646                           GLOBAL	__end_of_delay
   647  078D                     	__end_of_delay:
   648                           	signat	_delay,4216
   649                           psect	text20,local,class=CODE,delta=2,merge=1
   650                           global __ptext20
   651  0000                     __ptext20:
   652                           	global	btemp
   653  007E                     	btemp set 07Eh
   654                           
   655                           	DABS	1,126,2	;btemp
   656                           	global	wtemp0
   657  007E                     	wtemp0 set btemp


Data Sizes:
    Strings     0
    Constant    0
    Data        1
    BSS         0
    Persistent  0
    Stack       0

Auto Spaces:
    Space          Size  Autos    Used
    COMMON           14      9      10
    BANK0            80      0       0
    BANK1            80      0       0
    BANK3            96      0       0
    BANK2            96      0       0

Pointer List with Targets:

    None.

Critical Paths under _main in COMMON

    _main->_delay

Critical Paths under _main in BANK0

    None.

Critical Paths under _main in BANK1

    None.

Critical Paths under _main in BANK3

    None.

Critical Paths under _main in BANK2

    None.

Call Graph Tables:

 ---------------------------------------------------------------------------------
 (Depth) Function   	        Calls       Base Space   Used Autos Params    Refs
 ---------------------------------------------------------------------------------
 (0) _main                                                 1     1      0      30
                                              8 COMMON     1     1      0
                              _delay
 ---------------------------------------------------------------------------------
 (1) _delay                                                8     4      4      30
                                              0 COMMON     8     4      4
 ---------------------------------------------------------------------------------
 Estimated maximum stack depth 1
 ---------------------------------------------------------------------------------

 Call Graph Graphs:

 _main (ROOT)
   _delay

 Address spaces:
Name               Size   Autos  Total    Cost      Usage
BANK3               60      0       0       9        0.0%
BITBANK3            60      0       0       8        0.0%
SFR3                 0      0       0       4        0.0%
BITSFR3              0      0       0       4        0.0%
BANK2               60      0       0      11        0.0%
BITBANK2            60      0       0      10        0.0%
SFR2                 0      0       0       5        0.0%
BITSFR2              0      0       0       5        0.0%
BANK1               50      0       0       7        0.0%
BITBANK1            50      0       0       6        0.0%
SFR1                 0      0       0       2        0.0%
BITSFR1              0      0       0       2        0.0%
BANK0               50      0       0       5        0.0%
BITBANK0            50      0       0       4        0.0%
SFR0                 0      0       0       1        0.0%
BITSFR0              0      0       0       1        0.0%
COMMON               E      9       A       1       71.4%
BITCOMMON            E      0       0       0        0.0%
CODE                 0      0       0       0        0.0%
DATA                 0      0       B      12        0.0%
ABS                  0      0       A       3        0.0%
NULL                 0      0       0       0        0.0%
STACK                0      0       1       2        0.0%
EEDATA             100      0       0       0        0.0%


HI-TECH Software PICC Macro Assembler V1.00 build 12136 
Symbol Table                                                                                   Tue Jun 26 11:34:13 2012

                  l40 07FA                    l41 07DD                    l33 07A5                    l42 07CD  
                  l34 07AE                    l51 0767                    l35 07FB                    l43 07F9  
                  l52 078C                    l44 07F8                    l36 07BE                    l53 078C  
                  l45 07E8                    l37 07B4                    l46 07FC                    l38 07B4  
                  l47 07FD                    l39 07B9                    l48 07FD                    u10 0765  
                  u11 0764                    u20 0783                    u30 078B                    u31 078A  
                  u40 07AB                    u25 0776                    u41 07AA                    u26 0777  
                  u50 07B2                    u27 077C                    u51 07B1                    u28 077D  
                  u60 07B8                    u29 0782                    u61 07B7                    u70 07C2  
                  u71 07C1                    u80 07C8                    u81 07C7                    u90 07E1  
                  u91 07E0                   l510 075D                   l512 0766                   l520 0794  
                 l514 0767                   l530 07A3                   l522 0796                   l540 07B9  
                 l532 07A5                   l524 079A                   l516 078D                   l550 07E1  
                 l542 07C2                   l534 07AB                   l526 079E                   l518 0793  
                 l552 07E5                   l544 07C8                   l536 07AC                   l528 07A2  
                 l554 07E8                   l546 07CD                   l538 07B3                   l556 07EA  
                 l548 07CF                   _RA1 0029                   _RA2 002A                   _RA3 002B  
                 _RB2 0032                   _RA4 002C                   u100 07E5                   _PR2 0092  
                _main 078D                  _temp 0079                  btemp 007E                  start 0000  
               ?_main 0070                 _T2CON 0012                 _TRISA 0085                 _TRISB 0086  
               _TRISC 0087                 _delay 075D                 status 0003                 wtemp0 007E  
        __end_of_main 0800                ??_main 0078                ?_delay 0070                _ADCON1 009F  
              _CCPR1L 0015          __pdataCOMMON 0079        __pcstackCOMMON 0070         __end_of_delay 078D  
             ??_delay 0074            __pmaintext 078D               _CCP1CON 0017  end_of_initialization 0759  
       __pidataCOMMON 0752   start_initialization 0753        __size_of_delay 0030             delay@data 0070  
            __ptext20 0000              __ptext19 075D         __size_of_main 0073  
